target datalayout = "e-m:e-p270:32:32-p271:32:32-p272:64:64-i64:64-i128:128-f80:128-n8:16:32:64-S128"
target triple = "x86_64-pc-linux-gnu"

%struct.AVFormatContext = type { ptr, ptr, ptr, ptr, ptr, i32, i32, ptr, i32, ptr, i32, ptr, ptr, i64, i64, i64, i32, i32, i32, i64, i64, ptr, i32, i32, ptr, i32, i32, i32, i32, ptr, i64, i32, i32, %struct.AVIOInterruptCB, i32, i32, i32, i32, i64, i32, i32, i32, i32, i32, i32, i32, i32, i32, i32, i32, i32, i64, i32, i32, i32, i32, i32, ptr, ptr, ptr, ptr, i32, ptr, ptr, ptr, ptr, i32, ptr, ptr, i64, ptr, ptr, ptr, i64 }
%struct.AVIOInterruptCB = type { ptr, ptr }
%struct.MlvContext = type { [101 x ptr], [2 x i32], i32, i64, i32, i32, [9 x [2 x i32]] }

; Function Attrs: nounwind uwtable
define internal i32 @read_close(ptr noundef %0) #0 {
  %2 = alloca ptr, align 8
  %3 = alloca ptr, align 8
  %4 = alloca i32, align 4
  store ptr %0, ptr %2, align 8, !tbaa !14
  call void @llvm.lifetime.start.p0(i64 8, ptr %3) #10
  %5 = load ptr, ptr %2, align 8, !tbaa !14
  %6 = getelementptr inbounds nuw %struct.AVFormatContext, ptr %5, i32 0, i32 3
  %7 = load ptr, ptr %6, align 8, !tbaa !16
  store ptr %7, ptr %3, align 8, !tbaa !31
  call void @llvm.lifetime.start.p0(i64 4, ptr %4) #10
  store i32 0, ptr %4, align 4, !tbaa !38
  br label %8

8:                                                ; preds = %19, %1
  %9 = load i32, ptr %4, align 4, !tbaa !38
  %10 = icmp slt i32 %9, 100
  br i1 %10, label %11, label %22

11:                                               ; preds = %8
  %12 = load ptr, ptr %2, align 8, !tbaa !14
  %13 = load ptr, ptr %3, align 8, !tbaa !31
  %14 = getelementptr inbounds nuw %struct.MlvContext, ptr %13, i32 0, i32 0
  %15 = load i32, ptr %4, align 4, !tbaa !38
  %16 = sext i32 %15 to i64
  %17 = getelementptr inbounds [101 x ptr], ptr %14, i64 0, i64 %16
  %18 = call i32 @ff_format_io_close(ptr noundef %12, ptr noundef %17)
  br label %19

19:                                               ; preds = %11
  %20 = load i32, ptr %4, align 4, !tbaa !38
  %21 = add nsw i32 %20, 1
  store i32 %21, ptr %4, align 4, !tbaa !38
  br label %8, !llvm.loop !90

22:                                               ; preds = %8
  call void @llvm.lifetime.end.p0(i64 4, ptr %4) #10
  call void @llvm.lifetime.end.p0(i64 8, ptr %3) #10
  ret i32 0
}