; Function Attrs: nounwind uwtable
define internal noundef i32 @read_close(ptr noundef %0) #1 {
  %2 = getelementptr inbounds nuw i8, ptr %0, i64 24
  %3 = load ptr, ptr %2, align 8, !tbaa !12
  br label %4

4:                                                ; preds = %1, %4
  %indvars.iv = phi i64 [ 0, %1 ], [ %indvars.iv.next, %4 ]
  %5 = getelementptr inbounds nuw [101 x ptr], ptr %3, i64 0, i64 %indvars.iv
  %6 = tail call i32 @ff_format_io_close(ptr noundef nonnull %0, ptr noundef %5) #11
  %indvars.iv.next = add nuw nsw i64 %indvars.iv, 1
  %exitcond.not = icmp eq i64 %indvars.iv.next, 100
  br i1 %exitcond.not, label %7, label %4, !llvm.loop !78

7:                                                ; preds = %4
  ret i32 0
}